; Function Attrs: nounwind uwtable
define nonnull ptr @l_Std_Internal_Rat_instDecidableLe___boxed(ptr noundef %0, ptr noundef %1) local_unnamed_addr #0 {
  %3 = tail call zeroext i8 @l_Std_Internal_Rat_lt(ptr noundef %1, ptr noundef %0)
  %4 = tail call zeroext i8 @l_instDecidableNot___rarg(i8 noundef zeroext %3) #5
  %5 = zext i8 %4 to i64
  %6 = shl nuw nsw i64 %5, 1
  %7 = or disjoint i64 %6, 1
  %8 = inttoptr i64 %7 to ptr
  ret ptr %8
}